target datalayout = "e-m:e-p270:32:32-p271:32:32-p272:64:64-i64:64-i128:128-f80:128-n8:16:32:64-S128"
target triple = "x86_64-pc-linux-gnu"

%struct.nghttp2_session = type { %struct.nghttp2_map, %struct.nghttp2_stream, %struct.nghttp2_outbound_queue, %struct.nghttp2_outbound_queue, %struct.nghttp2_outbound_queue, [8 x %struct.anon], %struct.nghttp2_active_outbound_item, %struct.nghttp2_inbound_frame, %struct.nghttp2_hd_deflater, %struct.nghttp2_hd_inflater, %struct.nghttp2_session_callbacks, %struct.nghttp2_mem, ptr, ptr, ptr, ptr, ptr, ptr, i64, i64, i64, i64, i64, i64, i64, i64, i64, i64, i64, i64, i32, i32, i32, i32, i32, i32, i32, i32, i32, i32, i32, i32, i8, %struct.nghttp2_settings_storage, %struct.nghttp2_settings_storage, i32, i32, i32, i8, i8, i8, i8, i8, i8, i8, [32 x i8] }
%struct.nghttp2_map = type { ptr, ptr, i64, i32, i32 }
%struct.nghttp2_stream = type { %struct.nghttp2_pq_entry, %struct.nghttp2_pq, i64, i64, i64, i64, i64, i64, ptr, ptr, ptr, ptr, ptr, ptr, ptr, ptr, i64, i32, i32, i32, i32, i32, i32, i32, i32, i32, i32, i16, i32, i8, i8, i8, i8, i8, i8 }
%struct.nghttp2_pq_entry = type { i64 }
%struct.nghttp2_pq = type { ptr, ptr, i64, i64, ptr }
%struct.nghttp2_outbound_queue = type { ptr, ptr, i64 }
%struct.anon = type { %struct.nghttp2_pq }
%struct.nghttp2_active_outbound_item = type { ptr, %struct.nghttp2_bufs, i32 }
%struct.nghttp2_bufs = type { ptr, ptr, ptr, i64, i64, i64, i64, i64 }
%struct.nghttp2_inbound_frame = type { %union.nghttp2_frame, %union.nghttp2_ext_frame_payload, ptr, %struct.nghttp2_buf, %struct.nghttp2_buf, ptr, i64, i64, i64, i64, i32, [32 x i8] }
%union.nghttp2_frame = type { %struct.nghttp2_headers }
%struct.nghttp2_headers = type { %struct.nghttp2_frame_hd, i64, %struct.nghttp2_priority_spec, ptr, i64, i32 }
%struct.nghttp2_frame_hd = type { i64, i32, i8, i8, i8 }
%struct.nghttp2_priority_spec = type { i32, i32, i8 }
%union.nghttp2_ext_frame_payload = type { %struct.nghttp2_ext_altsvc }
%struct.nghttp2_ext_altsvc = type { ptr, i64, ptr, i64 }
%struct.nghttp2_buf = type { ptr, ptr, ptr, ptr, ptr }
%struct.nghttp2_hd_deflater = type { %struct.nghttp2_hd_context, %struct.nghttp2_hd_map, i64, i64, i8 }
%struct.nghttp2_hd_context = type { %struct.nghttp2_hd_ringbuf, ptr, i64, i64, i32, i8 }
%struct.nghttp2_hd_ringbuf = type { ptr, i64, i64, i64 }
%struct.nghttp2_hd_map = type { [128 x ptr] }
%struct.nghttp2_hd_inflater = type { %struct.nghttp2_hd_context, %struct.nghttp2_hd_huff_decode_context, %struct.nghttp2_buf, %struct.nghttp2_buf, ptr, ptr, ptr, ptr, i64, i64, i64, i64, i64, i32, i32, i8, i8, i8 }
%struct.nghttp2_hd_huff_decode_context = type { i16 }
%struct.nghttp2_session_callbacks = type { ptr, ptr, ptr, ptr, ptr, ptr, ptr, ptr, ptr, ptr, ptr, ptr, ptr, ptr, ptr, ptr, ptr, ptr, ptr, ptr, ptr, ptr, ptr }
%struct.nghttp2_mem = type { ptr, ptr, ptr, ptr, ptr }
%struct.nghttp2_settings_storage = type { i32, i32, i32, i32, i32, i32, i32, i32 }
%struct.nghttp2_buf_chain = type { ptr, %struct.nghttp2_buf }

; Function Attrs: nounwind uwtable
define dso_local i32 @nghttp2_session_send(ptr noundef %0) #0 {
  %2 = alloca i32, align 4
  %3 = alloca ptr, align 8
  %4 = alloca ptr, align 8
  %5 = alloca i64, align 8
  %6 = alloca i64, align 8
  %7 = alloca ptr, align 8
  %8 = alloca i32, align 4
  store ptr %0, ptr %3, align 8, !tbaa !8
  call void @llvm.lifetime.start.p0(i64 8, ptr %4) #9
  store ptr null, ptr %4, align 8, !tbaa !41
  call void @llvm.lifetime.start.p0(i64 8, ptr %5) #9
  call void @llvm.lifetime.start.p0(i64 8, ptr %6) #9
  call void @llvm.lifetime.start.p0(i64 8, ptr %7) #9
  %9 = load ptr, ptr %3, align 8, !tbaa !8
  %10 = getelementptr inbounds nuw %struct.nghttp2_session, ptr %9, i32 0, i32 6
  %11 = getelementptr inbounds nuw %struct.nghttp2_active_outbound_item, ptr %10, i32 0, i32 1
  store ptr %11, ptr %7, align 8, !tbaa !53
  br label %12

12:                                               ; preds = %48, %1
  %13 = load ptr, ptr %3, align 8, !tbaa !8
  %14 = call i64 @nghttp2_session_mem_send_internal(ptr noundef %13, ptr noundef %4, i32 noundef 0)
  store i64 %14, ptr %5, align 8, !tbaa !44
  %15 = load i64, ptr %5, align 8, !tbaa !44
  %16 = icmp sle i64 %15, 0
  br i1 %16, label %17, label %20

17:                                               ; preds = %12
  %18 = load i64, ptr %5, align 8, !tbaa !44
  %19 = trunc i64 %18 to i32
  store i32 %19, ptr %2, align 4
  store i32 1, ptr %8, align 4
  br label %60

20:                                               ; preds = %12
  %21 = load ptr, ptr %3, align 8, !tbaa !8
  %22 = getelementptr inbounds nuw %struct.nghttp2_session, ptr %21, i32 0, i32 10
  %23 = getelementptr inbounds nuw %struct.nghttp2_session_callbacks, ptr %22, i32 0, i32 0
  %24 = load ptr, ptr %23, align 8, !tbaa !180
  %25 = load ptr, ptr %3, align 8, !tbaa !8
  %26 = load ptr, ptr %4, align 8, !tbaa !41
  %27 = load i64, ptr %5, align 8, !tbaa !44
  %28 = load ptr, ptr %3, align 8, !tbaa !8
  %29 = getelementptr inbounds nuw %struct.nghttp2_session, ptr %28, i32 0, i32 12
  %30 = load ptr, ptr %29, align 8, !tbaa !92
  %31 = call i64 %24(ptr noundef %25, ptr noundef %26, i64 noundef %27, i32 noundef 0, ptr noundef %30)
  store i64 %31, ptr %6, align 8, !tbaa !44
  %32 = load i64, ptr %6, align 8, !tbaa !44
  %33 = icmp slt i64 %32, 0
  br i1 %33, label %34, label %48

34:                                               ; preds = %20
  %35 = load i64, ptr %6, align 8, !tbaa !44
  %36 = icmp eq i64 %35, -504
  br i1 %36, label %37, label %47

37:                                               ; preds = %34
  %38 = load i64, ptr %5, align 8, !tbaa !44
  %39 = load ptr, ptr %7, align 8, !tbaa !53
  %40 = getelementptr inbounds nuw %struct.nghttp2_bufs, ptr %39, i32 0, i32 1
  %41 = load ptr, ptr %40, align 8, !tbaa !171
  %42 = getelementptr inbounds nuw %struct.nghttp2_buf_chain, ptr %41, i32 0, i32 1
  %43 = getelementptr inbounds nuw %struct.nghttp2_buf, ptr %42, i32 0, i32 2
  %44 = load ptr, ptr %43, align 8, !tbaa !181
  %45 = sub i64 0, %38
  %46 = getelementptr inbounds i8, ptr %44, i64 %45
  store ptr %46, ptr %43, align 8, !tbaa !181
  store i32 0, ptr %2, align 4
  store i32 1, ptr %8, align 4
  br label %60

47:                                               ; preds = %34
  store i32 -902, ptr %2, align 4
  store i32 1, ptr %8, align 4
  br label %60

48:                                               ; preds = %20
  %49 = load i64, ptr %5, align 8, !tbaa !44
  %50 = load i64, ptr %6, align 8, !tbaa !44
  %51 = sub nsw i64 %49, %50
  %52 = load ptr, ptr %7, align 8, !tbaa !53
  %53 = getelementptr inbounds nuw %struct.nghttp2_bufs, ptr %52, i32 0, i32 1
  %54 = load ptr, ptr %53, align 8, !tbaa !171
  %55 = getelementptr inbounds nuw %struct.nghttp2_buf_chain, ptr %54, i32 0, i32 1
  %56 = getelementptr inbounds nuw %struct.nghttp2_buf, ptr %55, i32 0, i32 2
  %57 = load ptr, ptr %56, align 8, !tbaa !181
  %58 = sub i64 0, %51
  %59 = getelementptr inbounds i8, ptr %57, i64 %58
  store ptr %59, ptr %56, align 8, !tbaa !181
  br label %12

60:                                               ; preds = %47, %37, %17
  call void @llvm.lifetime.end.p0(i64 8, ptr %7) #9
  call void @llvm.lifetime.end.p0(i64 8, ptr %6) #9
  call void @llvm.lifetime.end.p0(i64 8, ptr %5) #9
  call void @llvm.lifetime.end.p0(i64 8, ptr %4) #9
  %61 = load i32, ptr %2, align 4
  ret i32 %61
}