; Function Attrs: nounwind uwtable
define dso_local i32 @nghttp2_session_send(ptr noundef %0) local_unnamed_addr #1 {
  %2 = alloca ptr, align 8
  call void @llvm.lifetime.start.p0(i64 8, ptr nonnull %2) #20
  store ptr null, ptr %2, align 8, !tbaa !165
  %3 = call fastcc i64 @nghttp2_session_mem_send_internal(ptr noundef %0, ptr noundef nonnull %2, i32 noundef 0)
  %4 = icmp slt i64 %3, 1
  br i1 %4, label %._crit_edge, label %.lr.ph

.lr.ph:                                           ; preds = %1
  %5 = getelementptr inbounds nuw i8, ptr %0, i64 2344
  %6 = getelementptr inbounds nuw i8, ptr %0, i64 2568
  %7 = getelementptr inbounds nuw i8, ptr %0, i64 664
  br label %9

._crit_edge:                                      ; preds = %24, %1
  %.lcssa = phi i64 [ %3, %1 ], [ %29, %24 ]
  %8 = trunc i64 %.lcssa to i32
  br label %31

9:                                                ; preds = %.lr.ph, %24
  %10 = phi i64 [ %3, %.lr.ph ], [ %29, %24 ]
  %11 = load ptr, ptr %5, align 8, !tbaa !187
  %12 = load ptr, ptr %2, align 8, !tbaa !165
  %13 = load ptr, ptr %6, align 8, !tbaa !89
  %14 = tail call i64 %11(ptr noundef %0, ptr noundef %12, i64 noundef %10, i32 noundef 0, ptr noundef %13) #20
  %15 = icmp slt i64 %14, 0
  br i1 %15, label %16, label %24

16:                                               ; preds = %9
  %17 = icmp eq i64 %14, -504
  br i1 %17, label %18, label %31

18:                                               ; preds = %16
  %19 = load ptr, ptr %7, align 8, !tbaa !179
  %20 = getelementptr inbounds nuw i8, ptr %19, i64 24
  %21 = load ptr, ptr %20, align 8, !tbaa !188
  %22 = sub nsw i64 0, %10
  %23 = getelementptr inbounds i8, ptr %21, i64 %22
  store ptr %23, ptr %20, align 8, !tbaa !188
  br label %31

24:                                               ; preds = %9
  %.neg = sub nsw i64 %14, %10
  %25 = load ptr, ptr %7, align 8, !tbaa !179
  %26 = getelementptr inbounds nuw i8, ptr %25, i64 24
  %27 = load ptr, ptr %26, align 8, !tbaa !188
  %28 = getelementptr inbounds i8, ptr %27, i64 %.neg
  store ptr %28, ptr %26, align 8, !tbaa !188
  %29 = call fastcc i64 @nghttp2_session_mem_send_internal(ptr noundef nonnull %0, ptr noundef nonnull %2, i32 noundef 0)
  %30 = icmp slt i64 %29, 1
  br i1 %30, label %._crit_edge, label %9

31:                                               ; preds = %16, %18, %._crit_edge
  %.0 = phi i32 [ %8, %._crit_edge ], [ 0, %18 ], [ -902, %16 ]
  call void @llvm.lifetime.end.p0(i64 8, ptr nonnull %2) #20
  ret i32 %.0
}